target datalayout = "e-m:e-p270:32:32-p271:32:32-p272:64:64-i64:64-i128:128-f80:128-n8:16:32:64-S128"
target triple = "x86_64-pc-linux-gnu"

%struct.dbd_fini_msg = type { i16, i16 }

@.str = private unnamed_addr constant [16 x i8] c"slurmdbd_pack.c\00", align 1
@__func__.slurmdbd_unpack_fini_msg = private unnamed_addr constant [25 x i8] c"slurmdbd_unpack_fini_msg\00", align 1

; Function Attrs: nounwind uwtable
define dso_local i32 @slurmdbd_unpack_fini_msg(ptr noundef %0, i16 noundef zeroext %1, ptr noundef %2) #0 {
  %4 = alloca i32, align 4
  %5 = alloca ptr, align 8
  %6 = alloca i16, align 2
  %7 = alloca ptr, align 8
  %8 = alloca ptr, align 8
  %9 = alloca i32, align 4
  store ptr %0, ptr %5, align 8
  store i16 %1, ptr %6, align 2
  store ptr %2, ptr %7, align 8
  call void @llvm.lifetime.start.p0(i64 8, ptr %8) #5
  %10 = call ptr @slurm_xcalloc(i64 noundef 1, i64 noundef 4, i1 noundef zeroext true, i1 noundef zeroext false, ptr noundef @.str, i32 noundef 1488, ptr noundef @__func__.slurmdbd_unpack_fini_msg)
  store ptr %10, ptr %8, align 8
  %11 = load ptr, ptr %8, align 8
  %12 = load ptr, ptr %5, align 8
  store ptr %11, ptr %12, align 8
  br label %13

13:                                               ; preds = %3
  %14 = load ptr, ptr %8, align 8
  %15 = getelementptr inbounds nuw %struct.dbd_fini_msg, ptr %14, i32 0, i32 0
  %16 = load ptr, ptr %7, align 8
  %17 = call i32 @unpack16(ptr noundef %15, ptr noundef %16)
  %18 = icmp ne i32 %17, 0
  br i1 %18, label %19, label %20

19:                                               ; preds = %13
  br label %33

20:                                               ; preds = %13
  br label %21

21:                                               ; preds = %20
  br label %22

22:                                               ; preds = %21
  br label %23

23:                                               ; preds = %22
  %24 = load ptr, ptr %8, align 8
  %25 = getelementptr inbounds nuw %struct.dbd_fini_msg, ptr %24, i32 0, i32 1
  %26 = load ptr, ptr %7, align 8
  %27 = call i32 @unpack16(ptr noundef %25, ptr noundef %26)
  %28 = icmp ne i32 %27, 0
  br i1 %28, label %29, label %30

29:                                               ; preds = %23
  br label %33

30:                                               ; preds = %23
  br label %31

31:                                               ; preds = %30
  br label %32

32:                                               ; preds = %31
  store i32 0, ptr %4, align 4
  store i32 1, ptr %9, align 4
  br label %36

33:                                               ; preds = %29, %19
  %34 = load ptr, ptr %8, align 8
  call void @slurmdbd_free_fini_msg(ptr noundef %34)
  %35 = load ptr, ptr %5, align 8
  store ptr null, ptr %35, align 8
  store i32 -1, ptr %4, align 4
  store i32 1, ptr %9, align 4
  br label %36

36:                                               ; preds = %33, %32
  call void @llvm.lifetime.end.p0(i64 8, ptr %8) #5
  %37 = load i32, ptr %4, align 4
  ret i32 %37
}