; Function Attrs: nounwind uwtable
define dso_local range(i32 -1, 1) i32 @slurmdbd_unpack_fini_msg(ptr noundef writeonly captures(none) initializes((0, 8)) %0, i16 zeroext %1, ptr noundef %2) local_unnamed_addr #0 {
  %4 = tail call ptr @slurm_xcalloc(i64 noundef 1, i64 noundef 4, i1 noundef zeroext true, i1 noundef zeroext false, ptr noundef nonnull @.str, i32 noundef 1488, ptr noundef nonnull @__func__.slurmdbd_unpack_fini_msg) #5
  store ptr %4, ptr %0, align 8
  %5 = tail call i32 @unpack16(ptr noundef %4, ptr noundef %2) #5
  %.not = icmp eq i32 %5, 0
  br i1 %.not, label %6, label %9

6:                                                ; preds = %3
  %7 = getelementptr inbounds nuw i8, ptr %4, i64 2
  %8 = tail call i32 @unpack16(ptr noundef nonnull %7, ptr noundef %2) #5
  %.not8 = icmp eq i32 %8, 0
  br i1 %.not8, label %10, label %9

9:                                                ; preds = %6, %3
  tail call void @slurmdbd_free_fini_msg(ptr noundef %4) #5
  store ptr null, ptr %0, align 8
  br label %10

10:                                               ; preds = %6, %9
  %.0 = phi i32 [ -1, %9 ], [ 0, %6 ]
  ret i32 %.0
}